ccopy_reg
_reconstructor
p1
(cmlxtend.feature_selection.sequential_feature_selector
SequentialFeatureSelector
p2
c__builtin__
object
p3
NtRp4
(dp5
S'scoring'
p6
S'accuracy'
p7
sS'interrupted_'
p8
I00
sS'scorer'
p9
g1
(csklearn.metrics.scorer
_PredictScorer
p10
g3
NtRp11
(dp12
S'_kwargs'
p13
(dp14
sS'_score_func'
p15
csklearn.metrics.classification
accuracy_score
p16
sS'_deprecation_msg'
p17
NsS'_sign'
p18
I1
sbsS'n_jobs'
p19
I20
sS'verbose'
p20
I1
sS'k_score_'
p21
cnumpy.core.multiarray
scalar
p22
(cnumpy
dtype
p23
(S'f8'
I0
I1
tRp24
(I3
S'<'
NNNI-1
I-1
I0
tbS'\x8d\xc1\xeb\x96T#\xe7?'
tRp25
sS'skip_if_stuck'
p26
I01
sS'clone_estimator'
p27
I01
sS'fitted'
p28
I01
sS'cv'
p29
I3
sS'forward'
p30
I01
sS'estimator'
p31
g1
(csklearn.pipeline
Pipeline
p32
g3
NtRp33
(dp34
S'_sklearn_version'
p35
S'0.18'
p36
sS'steps'
p37
(lp38
(S'scaler'
p39
g1
(csklearn.preprocessing.data
StandardScaler
p40
g3
NtRp41
(dp42
S'copy'
p43
I01
sg35
g36
sS'with_mean'
p44
I01
sS'with_std'
p45
I01
sbtp46
a(S'classifier'
p47
g1
(csklearn.ensemble.forest
RandomForestClassifier
p48
g3
NtRp49
(dp50
S'warm_start'
p51
I00
sS'base_estimator'
p52
g1
(csklearn.tree.tree
DecisionTreeClassifier
p53
g3
NtRp54
(dp55
S'presort'
p56
I00
sS'splitter'
p57
S'best'
p58
sS'tree_'
p59
NsS'n_features_'
p60
NsS'n_outputs_'
p61
NsS'n_classes_'
p62
NsS'min_impurity_split'
p63
F9.9999999999999995e-08
sS'classes_'
p64
NsS'max_features_'
p65
NsS'min_samples_leaf'
p66
I1
sS'min_samples_split'
p67
I2
sS'random_state'
p68
NsS'criterion'
p69
S'gini'
p70
sS'min_weight_fraction_leaf'
p71
F0
sS'max_leaf_nodes'
p72
NsS'max_features'
p73
Nsg35
g36
sS'max_depth'
p74
NsS'class_weight'
p75
NsbsS'estimators_'
p76
(lp77
sg19
I20
sg20
I0
sg72
NsS'bootstrap'
p78
I01
sS'oob_score'
p79
I00
sg66
I1
sS'n_estimators'
p80
I100
sg67
I2
sg68
I2
sg69
g70
sS'estimator_params'
p81
(S'criterion'
S'max_depth'
S'min_samples_split'
S'min_samples_leaf'
S'min_weight_fraction_leaf'
S'max_features'
S'max_leaf_nodes'
S'min_impurity_split'
S'random_state'
tp82
sg63
F9.9999999999999995e-08
sg73
S'auto'
p83
sg35
g36
sg71
F0
sg74
I6
sg75
Nsbtp84
asbsS'subsets_'
p85
(dp86
I1
(dp87
S'avg_score'
p88
g22
(g24
S'n\x8bvVJ\x8a\xe4?'
tRp89
sS'feature_idx'
p90
(I15
tp91
sS'cv_scores'
p92
cnumpy.core.multiarray
_reconstruct
p93
(cnumpy
ndarray
p94
(I0
tS'b'
tRp95
(I1
(I3
tg24
I00
S'x\xcan\xf1\xb3\x9c\xe4?\xef\xb6\x0e\xc5\xef\x82\xe4?\xe2 \xe6L;\x7f\xe4?'
tbssI2
(dp96
g88
g22
(g24
S'\xfd\xcd\x1c}\x1e-\xe6?'
tRp97
sg90
(I5
I15
tp98
sg92
g93
(g94
(I0
tS'b'
tRp99
(I1
(I3
tg24
I00
S'rY\xe7\x12~\x1b\xe6?\xac\x06C\x90\xbb2\xe6?\xda\t,\xd4!9\xe6?'
tbssI3
(dp100
g88
g25
sg90
(I11
I5
I15
tp101
sg92
g93
(g94
(I0
tS'b'
tRp102
(I1
(I3
tg24
I00
S'\xb1\x18\xeb`\x040\xe7?]I\xe3S\xef\x17\xe7?\x98\xe2\xf4\x0f\n"\xe7?'
tbsssS'k_features'
p103
I3
sS'subsets_plus_'
p104
(dp105
sS'pre_dispatch'
p106
S'2*n_jobs'
p107
sS'named_est'
p108
(dp109
S'pipeline'
p110
g33
ssS'floating'
p111
I00
sS'est_'
p112
g1
(g32
g3
NtRp113
(dp114
g35
g36
sg37
(lp115
(g39
g1
(g40
g3
NtRp116
(dp117
g43
I01
sg35
g36
sg44
I01
sg45
I01
sbtp118
a(g47
g1
(g48
g3
NtRp119
(dp120
g51
I00
sg52
g1
(g53
g3
NtRp121
(dp122
g56
I00
sg57
g58
sg59
Nsg60
Nsg61
Nsg62
Nsg63
F9.9999999999999995e-08
sg64
Nsg65
Nsg66
I1
sg67
I2
sg68
Nsg69
g70
sg71
F0
sg72
Nsg73
Nsg35
g36
sg74
Nsg75
Nsbsg76
(lp123
sg19
I20
sg20
I0
sg72
Nsg78
I01
sg79
I00
sg66
I1
sg80
I100
sg67
I2
sg68
I2
sg69
g70
sg81
g82
sg63
F9.9999999999999995e-08
sg73
g83
sg35
g36
sg71
F0
sg74
I6
sg75
Nsbtp124
asbsS'k_feature_idx_'
p125
g101
sS'_TESTING_INTERRUPT_MODE'
p126
I00
sb.